; ModuleID = '45/1256.c'
source_filename = "45/1256.c"
target datalayout = "e-m:e-p270:32:32-p271:32:32-p272:64:64-i64:64-f80:128-n8:16:32:64-S128"
target triple = "x86_64-pc-linux-gnu"

@.str = private unnamed_addr constant [3 x i8] c"%s\00", align 1
@.str.1 = private unnamed_addr constant [3 x i8] c"%d\00", align 1

; Function Attrs: noinline nounwind uwtable
define dso_local i32 @main(i32 %0, i8** %1) #0 {
  %3 = alloca i32, align 4
  %4 = alloca i32, align 4
  %5 = alloca i8**, align 8
  %6 = alloca [50 x i8], align 16
  %7 = alloca [50 x i8], align 16
  %8 = alloca i8*, align 8
  %9 = alloca i8*, align 8
  %10 = alloca i32, align 4
  %11 = alloca i32, align 4
  %12 = alloca i32, align 4
  %13 = alloca i32, align 4
  %14 = alloca i32, align 4
  %15 = alloca i32, align 4
  %16 = alloca i32, align 4
  store i32 0, i32* %3, align 4
  store i32 %0, i32* %4, align 4
  store i8** %1, i8*** %5, align 8
  store i32 0, i32* %10, align 4
  store i32 0, i32* %15, align 4
  store i32 0, i32* %16, align 4
  %17 = getelementptr inbounds [50 x i8], [50 x i8]* %6, i64 0, i64 0
  %18 = call i32 (i8*, ...) @__isoc99_scanf(i8* getelementptr inbounds ([3 x i8], [3 x i8]* @.str, i64 0, i64 0), i8* %17)
  %19 = getelementptr inbounds [50 x i8], [50 x i8]* %7, i64 0, i64 0
  %20 = call i32 (i8*, ...) @__isoc99_scanf(i8* getelementptr inbounds ([3 x i8], [3 x i8]* @.str, i64 0, i64 0), i8* %19)
  %21 = getelementptr inbounds [50 x i8], [50 x i8]* %6, i64 0, i64 0
  store i8* %21, i8** %8, align 8
  %22 = getelementptr inbounds [50 x i8], [50 x i8]* %7, i64 0, i64 0
  store i8* %22, i8** %9, align 8
  %23 = getelementptr inbounds [50 x i8], [50 x i8]* %6, i64 0, i64 0
  %24 = call i64 @strlen(i8* %23) #3
  %25 = trunc i64 %24 to i32
  store i32 %25, i32* %12, align 4
  %26 = getelementptr inbounds [50 x i8], [50 x i8]* %7, i64 0, i64 0
  %27 = call i64 @strlen(i8* %26) #3
  %28 = trunc i64 %27 to i32
  store i32 %28, i32* %13, align 4
  %29 = load i32, i32* %13, align 4
  %30 = load i32, i32* %12, align 4
  %31 = sub nsw i32 %29, %30
  %32 = add nsw i32 %31, 1
  store i32 %32, i32* %14, align 4
  store i32 0, i32* %10, align 4
  br label %33

33:                                               ; preds = %83, %2
  %34 = load i32, i32* %10, align 4
  %35 = load i32, i32* %14, align 4
  %36 = icmp slt i32 %34, %35
  br i1 %36, label %37, label %86

37:                                               ; preds = %33
  %38 = getelementptr inbounds [50 x i8], [50 x i8]* %7, i64 0, i64 0
  store i8* %38, i8** %9, align 8
  %39 = load i32, i32* %10, align 4
  %40 = load i8*, i8** %9, align 8
  %41 = sext i32 %39 to i64
  %42 = getelementptr inbounds i8, i8* %40, i64 %41
  store i8* %42, i8** %9, align 8
  store i32 0, i32* %15, align 4
  %43 = getelementptr inbounds [50 x i8], [50 x i8]* %6, i64 0, i64 0
  store i8* %43, i8** %8, align 8
  br label %44

44:                                               ; preds = %71, %37
  %45 = load i8*, i8** %8, align 8
  %46 = load i8, i8* %45, align 1
  %47 = sext i8 %46 to i32
  %48 = icmp ne i32 %47, 0
  br i1 %48, label %49, label %54

49:                                               ; preds = %44
  %50 = load i8*, i8** %9, align 8
  %51 = load i8, i8* %50, align 1
  %52 = sext i8 %51 to i32
  %53 = icmp ne i32 %52, 0
  br label %54

54:                                               ; preds = %49, %44
  %55 = phi i1 [ false, %44 ], [ %53, %49 ]
  br i1 %55, label %56, label %76

56:                                               ; preds = %54
  %57 = load i8*, i8** %8, align 8
  %58 = load i8, i8* %57, align 1
  %59 = sext i8 %58 to i32
  %60 = load i8*, i8** %9, align 8
  %61 = load i8, i8* %60, align 1
  %62 = sext i8 %61 to i32
  %63 = icmp eq i32 %59, %62
  br i1 %63, label %64, label %67

64:                                               ; preds = %56
  %65 = load i32, i32* %15, align 4
  %66 = add nsw i32 %65, 1
  store i32 %66, i32* %15, align 4
  br label %70

67:                                               ; preds = %56
  %68 = load i32, i32* %15, align 4
  %69 = add nsw i32 %68, 0
  store i32 %69, i32* %15, align 4
  br label %70

70:                                               ; preds = %67, %64
  br label %71

71:                                               ; preds = %70
  %72 = load i8*, i8** %8, align 8
  %73 = getelementptr inbounds i8, i8* %72, i32 1
  store i8* %73, i8** %8, align 8
  %74 = load i8*, i8** %9, align 8
  %75 = getelementptr inbounds i8, i8* %74, i32 1
  store i8* %75, i8** %9, align 8
  br label %44

76:                                               ; preds = %54
  %77 = load i32, i32* %15, align 4
  %78 = load i32, i32* %12, align 4
  %79 = icmp eq i32 %77, %78
  br i1 %79, label %80, label %82

80:                                               ; preds = %76
  %81 = load i32, i32* %10, align 4
  store i32 %81, i32* %16, align 4
  br label %86

82:                                               ; preds = %76
  br label %83

83:                                               ; preds = %82
  %84 = load i32, i32* %10, align 4
  %85 = add nsw i32 %84, 1
  store i32 %85, i32* %10, align 4
  br label %33

86:                                               ; preds = %80, %33
  %87 = load i32, i32* %16, align 4
  %88 = call i32 (i8*, ...) @printf(i8* getelementptr inbounds ([3 x i8], [3 x i8]* @.str.1, i64 0, i64 0), i32 %87)
  ret i32 0
}

declare dso_local i32 @__isoc99_scanf(i8*, ...) #1

; Function Attrs: nounwind readonly
declare dso_local i64 @strlen(i8*) #2

declare dso_local i32 @printf(i8*, ...) #1


!llvm.module.flags = !{!0}
!llvm.ident = !{!1}

!0 = !{i32 1, !"wchar_size", i32 4}
!1 = !{!"clang version 10.0.0-4ubuntu1 "}
